; ModuleID = '27/1584.c'
source_filename = "27/1584.c"
target datalayout = "e-m:e-p270:32:32-p271:32:32-p272:64:64-i64:64-f80:128-n8:16:32:64-S128"
target triple = "x86_64-pc-linux-gnu"

@.str = private unnamed_addr constant [3 x i8] c"%d\00", align 1
@.str.1 = private unnamed_addr constant [10 x i8] c"%lf%lf%lf\00", align 1
@.str.2 = private unnamed_addr constant [19 x i8] c"x1=%.5lf;x2=%.5lf\0A\00", align 1
@.str.3 = private unnamed_addr constant [13 x i8] c"x1=x2=%.5lf\0A\00", align 1
@.str.4 = private unnamed_addr constant [33 x i8] c"x1=%.5lf+%.5lfi;x2=%.5lf-%.5lfi\0A\00", align 1

; Function Attrs: noinline nounwind uwtable
define dso_local void @main() #0 {
  %1 = alloca i32, align 4
  %2 = alloca i32, align 4
  %3 = alloca double, align 8
  %4 = alloca double, align 8
  %5 = alloca double, align 8
  %6 = alloca double, align 8
  %7 = alloca [10000 x double], align 16
  %8 = alloca [10000 x double], align 16
  %9 = alloca [10000 x double], align 16
  %10 = call i32 (i8*, ...) @__isoc99_scanf(i8* getelementptr inbounds ([3 x i8], [3 x i8]* @.str, i64 0, i64 0), i32* %1)
  store i32 0, i32* %2, align 4
  br label %11

11:                                               ; preds = %26, %0
  %12 = load i32, i32* %2, align 4
  %13 = load i32, i32* %1, align 4
  %14 = icmp slt i32 %12, %13
  br i1 %14, label %15, label %29

15:                                               ; preds = %11
  %16 = load i32, i32* %2, align 4
  %17 = sext i32 %16 to i64
  %18 = getelementptr inbounds [10000 x double], [10000 x double]* %7, i64 0, i64 %17
  %19 = load i32, i32* %2, align 4
  %20 = sext i32 %19 to i64
  %21 = getelementptr inbounds [10000 x double], [10000 x double]* %8, i64 0, i64 %20
  %22 = load i32, i32* %2, align 4
  %23 = sext i32 %22 to i64
  %24 = getelementptr inbounds [10000 x double], [10000 x double]* %9, i64 0, i64 %23
  %25 = call i32 (i8*, ...) @__isoc99_scanf(i8* getelementptr inbounds ([10 x i8], [10 x i8]* @.str.1, i64 0, i64 0), double* %18, double* %21, double* %24)
  br label %26

26:                                               ; preds = %15
  %27 = load i32, i32* %2, align 4
  %28 = add nsw i32 %27, 1
  store i32 %28, i32* %2, align 4
  br label %11

29:                                               ; preds = %11
  store i32 0, i32* %2, align 4
  br label %30

30:                                               ; preds = %209, %29
  %31 = load i32, i32* %2, align 4
  %32 = load i32, i32* %1, align 4
  %33 = icmp slt i32 %31, %32
  br i1 %33, label %34, label %212

34:                                               ; preds = %30
  %35 = load i32, i32* %2, align 4
  %36 = sext i32 %35 to i64
  %37 = getelementptr inbounds [10000 x double], [10000 x double]* %8, i64 0, i64 %36
  %38 = load double, double* %37, align 8
  %39 = load i32, i32* %2, align 4
  %40 = sext i32 %39 to i64
  %41 = getelementptr inbounds [10000 x double], [10000 x double]* %8, i64 0, i64 %40
  %42 = load double, double* %41, align 8
  %43 = fmul double %38, %42
  %44 = load i32, i32* %2, align 4
  %45 = sext i32 %44 to i64
  %46 = getelementptr inbounds [10000 x double], [10000 x double]* %7, i64 0, i64 %45
  %47 = load double, double* %46, align 8
  %48 = fmul double 4.000000e+00, %47
  %49 = load i32, i32* %2, align 4
  %50 = sext i32 %49 to i64
  %51 = getelementptr inbounds [10000 x double], [10000 x double]* %9, i64 0, i64 %50
  %52 = load double, double* %51, align 8
  %53 = fmul double %48, %52
  %54 = fsub double %43, %53
  %55 = fcmp ogt double %54, 0.000000e+00
  br i1 %55, label %56, label %126

56:                                               ; preds = %34
  %57 = load i32, i32* %2, align 4
  %58 = sext i32 %57 to i64
  %59 = getelementptr inbounds [10000 x double], [10000 x double]* %8, i64 0, i64 %58
  %60 = load double, double* %59, align 8
  %61 = fneg double %60
  %62 = load i32, i32* %2, align 4
  %63 = sext i32 %62 to i64
  %64 = getelementptr inbounds [10000 x double], [10000 x double]* %8, i64 0, i64 %63
  %65 = load double, double* %64, align 8
  %66 = load i32, i32* %2, align 4
  %67 = sext i32 %66 to i64
  %68 = getelementptr inbounds [10000 x double], [10000 x double]* %8, i64 0, i64 %67
  %69 = load double, double* %68, align 8
  %70 = fmul double %65, %69
  %71 = load i32, i32* %2, align 4
  %72 = sext i32 %71 to i64
  %73 = getelementptr inbounds [10000 x double], [10000 x double]* %7, i64 0, i64 %72
  %74 = load double, double* %73, align 8
  %75 = fmul double 4.000000e+00, %74
  %76 = load i32, i32* %2, align 4
  %77 = sext i32 %76 to i64
  %78 = getelementptr inbounds [10000 x double], [10000 x double]* %9, i64 0, i64 %77
  %79 = load double, double* %78, align 8
  %80 = fmul double %75, %79
  %81 = fsub double %70, %80
  %82 = call double @sqrt(double %81) #3
  %83 = fadd double %61, %82
  %84 = load i32, i32* %2, align 4
  %85 = sext i32 %84 to i64
  %86 = getelementptr inbounds [10000 x double], [10000 x double]* %7, i64 0, i64 %85
  %87 = load double, double* %86, align 8
  %88 = fmul double 2.000000e+00, %87
  %89 = fdiv double %83, %88
  store double %89, double* %3, align 8
  %90 = load i32, i32* %2, align 4
  %91 = sext i32 %90 to i64
  %92 = getelementptr inbounds [10000 x double], [10000 x double]* %8, i64 0, i64 %91
  %93 = load double, double* %92, align 8
  %94 = fneg double %93
  %95 = load i32, i32* %2, align 4
  %96 = sext i32 %95 to i64
  %97 = getelementptr inbounds [10000 x double], [10000 x double]* %8, i64 0, i64 %96
  %98 = load double, double* %97, align 8
  %99 = load i32, i32* %2, align 4
  %100 = sext i32 %99 to i64
  %101 = getelementptr inbounds [10000 x double], [10000 x double]* %8, i64 0, i64 %100
  %102 = load double, double* %101, align 8
  %103 = fmul double %98, %102
  %104 = load i32, i32* %2, align 4
  %105 = sext i32 %104 to i64
  %106 = getelementptr inbounds [10000 x double], [10000 x double]* %7, i64 0, i64 %105
  %107 = load double, double* %106, align 8
  %108 = fmul double 4.000000e+00, %107
  %109 = load i32, i32* %2, align 4
  %110 = sext i32 %109 to i64
  %111 = getelementptr inbounds [10000 x double], [10000 x double]* %9, i64 0, i64 %110
  %112 = load double, double* %111, align 8
  %113 = fmul double %108, %112
  %114 = fsub double %103, %113
  %115 = call double @sqrt(double %114) #3
  %116 = fsub double %94, %115
  %117 = load i32, i32* %2, align 4
  %118 = sext i32 %117 to i64
  %119 = getelementptr inbounds [10000 x double], [10000 x double]* %7, i64 0, i64 %118
  %120 = load double, double* %119, align 8
  %121 = fmul double 2.000000e+00, %120
  %122 = fdiv double %116, %121
  store double %122, double* %4, align 8
  %123 = load double, double* %3, align 8
  %124 = load double, double* %4, align 8
  %125 = call i32 (i8*, ...) @printf(i8* getelementptr inbounds ([19 x i8], [19 x i8]* @.str.2, i64 0, i64 0), double %123, double %124)
  br label %208

126:                                              ; preds = %34
  %127 = load i32, i32* %2, align 4
  %128 = sext i32 %127 to i64
  %129 = getelementptr inbounds [10000 x double], [10000 x double]* %8, i64 0, i64 %128
  %130 = load double, double* %129, align 8
  %131 = load i32, i32* %2, align 4
  %132 = sext i32 %131 to i64
  %133 = getelementptr inbounds [10000 x double], [10000 x double]* %8, i64 0, i64 %132
  %134 = load double, double* %133, align 8
  %135 = fmul double %130, %134
  %136 = load i32, i32* %2, align 4
  %137 = sext i32 %136 to i64
  %138 = getelementptr inbounds [10000 x double], [10000 x double]* %7, i64 0, i64 %137
  %139 = load double, double* %138, align 8
  %140 = fmul double 4.000000e+00, %139
  %141 = load i32, i32* %2, align 4
  %142 = sext i32 %141 to i64
  %143 = getelementptr inbounds [10000 x double], [10000 x double]* %9, i64 0, i64 %142
  %144 = load double, double* %143, align 8
  %145 = fmul double %140, %144
  %146 = fsub double %135, %145
  %147 = fcmp oeq double %146, 0.000000e+00
  br i1 %147, label %148, label %162

148:                                              ; preds = %126
  %149 = load i32, i32* %2, align 4
  %150 = sext i32 %149 to i64
  %151 = getelementptr inbounds [10000 x double], [10000 x double]* %8, i64 0, i64 %150
  %152 = load double, double* %151, align 8
  %153 = fneg double %152
  %154 = load i32, i32* %2, align 4
  %155 = sext i32 %154 to i64
  %156 = getelementptr inbounds [10000 x double], [10000 x double]* %7, i64 0, i64 %155
  %157 = load double, double* %156, align 8
  %158 = fmul double 2.000000e+00, %157
  %159 = fdiv double %153, %158
  store double %159, double* %3, align 8
  %160 = load double, double* %3, align 8
  %161 = call i32 (i8*, ...) @printf(i8* getelementptr inbounds ([13 x i8], [13 x i8]* @.str.3, i64 0, i64 0), double %160)
  br label %207

162:                                              ; preds = %126
  %163 = load i32, i32* %2, align 4
  %164 = sext i32 %163 to i64
  %165 = getelementptr inbounds [10000 x double], [10000 x double]* %8, i64 0, i64 %164
  %166 = load double, double* %165, align 8
  %167 = fneg double %166
  %168 = load i32, i32* %2, align 4
  %169 = sext i32 %168 to i64
  %170 = getelementptr inbounds [10000 x double], [10000 x double]* %7, i64 0, i64 %169
  %171 = load double, double* %170, align 8
  %172 = fmul double 2.000000e+00, %171
  %173 = fdiv double %167, %172
  store double %173, double* %5, align 8
  %174 = load i32, i32* %2, align 4
  %175 = sext i32 %174 to i64
  %176 = getelementptr inbounds [10000 x double], [10000 x double]* %8, i64 0, i64 %175
  %177 = load double, double* %176, align 8
  %178 = fneg double %177
  %179 = load i32, i32* %2, align 4
  %180 = sext i32 %179 to i64
  %181 = getelementptr inbounds [10000 x double], [10000 x double]* %8, i64 0, i64 %180
  %182 = load double, double* %181, align 8
  %183 = fmul double %178, %182
  %184 = load i32, i32* %2, align 4
  %185 = sext i32 %184 to i64
  %186 = getelementptr inbounds [10000 x double], [10000 x double]* %7, i64 0, i64 %185
  %187 = load double, double* %186, align 8
  %188 = fmul double 4.000000e+00, %187
  %189 = load i32, i32* %2, align 4
  %190 = sext i32 %189 to i64
  %191 = getelementptr inbounds [10000 x double], [10000 x double]* %9, i64 0, i64 %190
  %192 = load double, double* %191, align 8
  %193 = fmul double %188, %192
  %194 = fadd double %183, %193
  %195 = call double @sqrt(double %194) #3
  %196 = load i32, i32* %2, align 4
  %197 = sext i32 %196 to i64
  %198 = getelementptr inbounds [10000 x double], [10000 x double]* %7, i64 0, i64 %197
  %199 = load double, double* %198, align 8
  %200 = fmul double 2.000000e+00, %199
  %201 = fdiv double %195, %200
  store double %201, double* %6, align 8
  %202 = load double, double* %5, align 8
  %203 = load double, double* %6, align 8
  %204 = load double, double* %5, align 8
  %205 = load double, double* %6, align 8
  %206 = call i32 (i8*, ...) @printf(i8* getelementptr inbounds ([33 x i8], [33 x i8]* @.str.4, i64 0, i64 0), double %202, double %203, double %204, double %205)
  br label %207

207:                                              ; preds = %162, %148
  br label %208

208:                                              ; preds = %207, %56
  br label %209

209:                                              ; preds = %208
  %210 = load i32, i32* %2, align 4
  %211 = add nsw i32 %210, 1
  store i32 %211, i32* %2, align 4
  br label %30

212:                                              ; preds = %30
  ret void
}

declare dso_local i32 @__isoc99_scanf(i8*, ...) #1

; Function Attrs: nounwind
declare dso_local double @sqrt(double) #2

declare dso_local i32 @printf(i8*, ...) #1


!llvm.module.flags = !{!0}
!llvm.ident = !{!1}

!0 = !{i32 1, !"wchar_size", i32 4}
!1 = !{!"clang version 10.0.0-4ubuntu1 "}
